ccopy_reg
_reconstructor
p0
(cgoogle.oauth2.credentials
Credentials
p1
c__builtin__
object
p2
Ntp3
Rp4
(dp5
S'_token_uri'
p6
Vhttps://oauth2.googleapis.com/token
p7
sS'_client_secret'
p8
VEXgq6JvzGfVh6wSYtctZQQMA
p9
sS'_id_token'
p10
NsS'token'
p11
Vya29.GltcB6NjclYfzoND9hr30fn5_r4ecV353KrGrnrX3m9TU5bayJe4jdjzME3LmUhYTC33HmdYJLiIfn3EhZdD8YsyN22x62HrJmWbgsnnv7UgWsB3cUpoVpwpuU_9
p12
sS'_refresh_token'
p13
V1/8u0gGIuZhb5KxtlbzNNjDLADWIP3NuxPe51urJjh0zKo-n4fzJWZmC2sPBw7uGys
p14
sS'_scopes'
p15
(lp16
S'https://www.googleapis.com/auth/documents'
p17
aS'https://www.googleapis.com/auth/drive'
p18
aS'https://www.googleapis.com/auth/drive.file'
p19
asS'_client_id'
p20
V307711857583-te3brkaorq9gsqv56j1i2b5eqd820u6p.apps.googleusercontent.com
p21
sS'expiry'
p22
cdatetime
datetime
p23
(S'\x07\xe3\x08\x06\x14+9\x01\xc18'
p24
tp25
Rp26
sb.